target datalayout = "e-m:e-p270:32:32-p271:32:32-p272:64:64-i64:64-i128:128-f80:128-n8:16:32:64-S128"
target triple = "x86_64-pc-linux-gnu"

%struct.symbol = type { ptr, i32, i32, ptr, ptr, i32, i32, ptr, i32, i32, ptr, i32, ptr, i32, i32, i32, ptr }

; Function Attrs: nounwind null_pointer_is_valid sspstrong uwtable
define hidden i32 @Symbolcmpp(ptr noundef %0, ptr noundef %1) #2 {
  %3 = alloca ptr, align 8
  %4 = alloca ptr, align 8
  %5 = alloca ptr, align 8
  %6 = alloca ptr, align 8
  %7 = alloca i32, align 4
  %8 = alloca i32, align 4
  store ptr %0, ptr %3, align 8
  store ptr %1, ptr %4, align 8
  call void @llvm.lifetime.start.p0(i64 8, ptr %5) #18
  %9 = load ptr, ptr %3, align 8
  %10 = load ptr, ptr %9, align 8
  store ptr %10, ptr %5, align 8
  call void @llvm.lifetime.start.p0(i64 8, ptr %6) #18
  %11 = load ptr, ptr %4, align 8
  %12 = load ptr, ptr %11, align 8
  store ptr %12, ptr %6, align 8
  call void @llvm.lifetime.start.p0(i64 4, ptr %7) #18
  %13 = load ptr, ptr %5, align 8
  %14 = getelementptr inbounds nuw %struct.symbol, ptr %13, i32 0, i32 2
  %15 = load i32, ptr %14, align 4
  %16 = icmp eq i32 %15, 2
  br i1 %16, label %17, label %18

17:                                               ; preds = %2
  br label %27

18:                                               ; preds = %2
  %19 = load ptr, ptr %5, align 8
  %20 = getelementptr inbounds nuw %struct.symbol, ptr %19, i32 0, i32 0
  %21 = load ptr, ptr %20, align 8
  %22 = getelementptr i8, ptr %21, i64 0
  %23 = load i8, ptr %22, align 1
  %24 = sext i8 %23 to i32
  %25 = icmp sgt i32 %24, 90
  %26 = select i1 %25, i32 2, i32 1
  br label %27

27:                                               ; preds = %18, %17
  %28 = phi i32 [ 3, %17 ], [ %26, %18 ]
  store i32 %28, ptr %7, align 4
  call void @llvm.lifetime.start.p0(i64 4, ptr %8) #18
  %29 = load ptr, ptr %6, align 8
  %30 = getelementptr inbounds nuw %struct.symbol, ptr %29, i32 0, i32 2
  %31 = load i32, ptr %30, align 4
  %32 = icmp eq i32 %31, 2
  br i1 %32, label %33, label %34

33:                                               ; preds = %27
  br label %43

34:                                               ; preds = %27
  %35 = load ptr, ptr %6, align 8
  %36 = getelementptr inbounds nuw %struct.symbol, ptr %35, i32 0, i32 0
  %37 = load ptr, ptr %36, align 8
  %38 = getelementptr i8, ptr %37, i64 0
  %39 = load i8, ptr %38, align 1
  %40 = sext i8 %39 to i32
  %41 = icmp sgt i32 %40, 90
  %42 = select i1 %41, i32 2, i32 1
  br label %43

43:                                               ; preds = %34, %33
  %44 = phi i32 [ 3, %33 ], [ %42, %34 ]
  store i32 %44, ptr %8, align 4
  %45 = load i32, ptr %7, align 4
  %46 = load i32, ptr %8, align 4
  %47 = icmp eq i32 %45, %46
  br i1 %47, label %48, label %56

48:                                               ; preds = %43
  %49 = load ptr, ptr %5, align 8
  %50 = getelementptr inbounds nuw %struct.symbol, ptr %49, i32 0, i32 1
  %51 = load i32, ptr %50, align 8
  %52 = load ptr, ptr %6, align 8
  %53 = getelementptr inbounds nuw %struct.symbol, ptr %52, i32 0, i32 1
  %54 = load i32, ptr %53, align 8
  %55 = sub i32 %51, %54
  br label %60

56:                                               ; preds = %43
  %57 = load i32, ptr %7, align 4
  %58 = load i32, ptr %8, align 4
  %59 = sub i32 %57, %58
  br label %60

60:                                               ; preds = %56, %48
  %61 = phi i32 [ %55, %48 ], [ %59, %56 ]
  call void @llvm.lifetime.end.p0(i64 4, ptr %8) #18
  call void @llvm.lifetime.end.p0(i64 4, ptr %7) #18
  call void @llvm.lifetime.end.p0(i64 8, ptr %6) #18
  call void @llvm.lifetime.end.p0(i64 8, ptr %5) #18
  ret i32 %61
}