; Function Attrs: mustprogress nofree norecurse nosync nounwind null_pointer_is_valid sspstrong willreturn memory(read, inaccessiblemem: none) uwtable
define hidden i32 @Symbolcmpp(ptr noundef readonly captures(none) %0, ptr noundef readonly captures(none) %1) #19 {
  %3 = load ptr, ptr %0, align 8
  %4 = load ptr, ptr %1, align 8
  %5 = getelementptr inbounds nuw i8, ptr %3, i64 12
  %6 = load i32, ptr %5, align 4
  %7 = icmp eq i32 %6, 2
  br i1 %7, label %13, label %8

8:                                                ; preds = %2
  %9 = load ptr, ptr %3, align 8
  %10 = load i8, ptr %9, align 1
  %11 = icmp sgt i8 %10, 90
  %12 = select i1 %11, i32 2, i32 1
  br label %13

13:                                               ; preds = %2, %8
  %14 = phi i32 [ %12, %8 ], [ 3, %2 ]
  %15 = getelementptr inbounds nuw i8, ptr %4, i64 12
  %16 = load i32, ptr %15, align 4
  %17 = icmp eq i32 %16, 2
  br i1 %17, label %23, label %18

18:                                               ; preds = %13
  %19 = load ptr, ptr %4, align 8
  %20 = load i8, ptr %19, align 1
  %21 = icmp sgt i8 %20, 90
  %22 = select i1 %21, i32 2, i32 1
  br label %23

23:                                               ; preds = %13, %18
  %24 = phi i32 [ %22, %18 ], [ 3, %13 ]
  %25 = icmp eq i32 %14, %24
  br i1 %25, label %26, label %32

26:                                               ; preds = %23
  %27 = getelementptr inbounds nuw i8, ptr %3, i64 8
  %28 = load i32, ptr %27, align 8
  %29 = getelementptr inbounds nuw i8, ptr %4, i64 8
  %30 = load i32, ptr %29, align 8
  %31 = sub i32 %28, %30
  br label %34

32:                                               ; preds = %23
  %33 = sub nsw i32 %14, %24
  br label %34

34:                                               ; preds = %32, %26
  %35 = phi i32 [ %31, %26 ], [ %33, %32 ]
  ret i32 %35
}